target datalayout = "e-m:e-p270:32:32-p271:32:32-p272:64:64-i64:64-i128:128-f80:128-n8:16:32:64-S128"
target triple = "x86_64-pc-linux-gnu"

%struct.Nwk_Man_t_ = type { ptr, ptr, ptr, ptr, ptr, [5 x i32], i32, ptr, ptr, ptr, ptr, ptr, i32, i32, i32, i32, i32 }
%struct.Nwk_Obj_t_ = type { ptr, ptr, ptr, %union.anon, i32, i32, i32, i32, float, float, float, i32, i32, i32, ptr }
%union.anon = type { ptr }

; Function Attrs: nounwind uwtable
define void @Nwk_ManRemoveDupFaninsNode(ptr noundef %0, i32 noundef %1, i32 noundef %2, ptr noundef %3) #0 {
  %5 = alloca ptr, align 8
  %6 = alloca i32, align 4
  %7 = alloca i32, align 4
  %8 = alloca ptr, align 8
  %9 = alloca ptr, align 8
  store ptr %0, ptr %5, align 8, !tbaa !19
  store i32 %1, ptr %6, align 4, !tbaa !17
  store i32 %2, ptr %7, align 4, !tbaa !17
  store ptr %3, ptr %8, align 8, !tbaa !58
  call void @llvm.lifetime.start.p0(i64 8, ptr %9) #9
  %10 = load ptr, ptr %5, align 8, !tbaa !19
  %11 = getelementptr inbounds nuw %struct.Nwk_Obj_t_, ptr %10, i32 0, i32 0
  %12 = load ptr, ptr %11, align 8, !tbaa !38
  %13 = getelementptr inbounds nuw %struct.Nwk_Man_t_, ptr %12, i32 0, i32 7
  %14 = load ptr, ptr %13, align 8, !tbaa !60
  store ptr %14, ptr %9, align 8, !tbaa !85
  %15 = load ptr, ptr %9, align 8, !tbaa !85
  %16 = load ptr, ptr %5, align 8, !tbaa !19
  %17 = getelementptr inbounds nuw %struct.Nwk_Obj_t_, ptr %16, i32 0, i32 1
  %18 = load ptr, ptr %17, align 8, !tbaa !42
  %19 = load ptr, ptr %9, align 8, !tbaa !85
  %20 = load i32, ptr %6, align 4, !tbaa !17
  %21 = call ptr @Hop_IthVar(ptr noundef %19, i32 noundef %20)
  %22 = load i32, ptr %7, align 4, !tbaa !17
  %23 = call ptr @Hop_Compose(ptr noundef %15, ptr noundef %18, ptr noundef %21, i32 noundef %22)
  %24 = load ptr, ptr %5, align 8, !tbaa !19
  %25 = getelementptr inbounds nuw %struct.Nwk_Obj_t_, ptr %24, i32 0, i32 1
  store ptr %23, ptr %25, align 8, !tbaa !42
  %26 = load ptr, ptr %5, align 8, !tbaa !19
  %27 = load ptr, ptr %8, align 8, !tbaa !58
  %28 = call i32 @Nwk_ManMinimumBaseNode(ptr noundef %26, ptr noundef %27, i32 noundef 0)
  call void @llvm.lifetime.end.p0(i64 8, ptr %9) #9
  ret void
}