; Function Attrs: nounwind uwtable
define void @Nwk_ManRemoveDupFaninsNode(ptr noundef %0, i32 noundef %1, i32 noundef %2, ptr noundef %3) local_unnamed_addr #3 {
  %5 = load ptr, ptr %0, align 8, !tbaa !32
  %6 = getelementptr inbounds nuw i8, ptr %5, i64 64
  %7 = load ptr, ptr %6, align 8, !tbaa !56
  %8 = getelementptr inbounds nuw i8, ptr %0, i64 8
  %9 = load ptr, ptr %8, align 8, !tbaa !37
  %10 = tail call ptr @Hop_IthVar(ptr noundef %7, i32 noundef %1) #17
  %11 = tail call ptr @Hop_Compose(ptr noundef %7, ptr noundef %9, ptr noundef %10, i32 noundef %2) #17
  store ptr %11, ptr %8, align 8, !tbaa !37
  %12 = tail call i32 @Nwk_ManMinimumBaseNode(ptr noundef nonnull %0, ptr noundef %3, i32 noundef 0)
  ret void
}